#include <math.h>
#include <stdio.h>
#include <stdlib.h>
#include <string.h>

int main (){
    double x,y;
    int na,nb,i,c;
    char a[500],b[500];
    scanf("%lf",&x);
    scanf("%s",a);
    scanf("%s",b);
    na=strlen(a);
    nb=strlen(b);
    if(na!=nb){
        printf("error");
        return 0;
    }else{
        c=0;
        for(i=0;i<na;i++){
            if((a[i]=='A')||(a[i]=='T')||(a[i]=='C')||(a[i]=='G')){
               if((b[i]=='A')||(b[i]=='T')||(b[i]=='C')||(b[i]=='G')){
                 if(a[i]==b[i]){
                     c=c+1;
                 }
               }else{printf("error");
                        return 0;
               }
            }else{printf("error");
                  return 0;
            }
            }
    }
                y=1.0*c/na;
                if(y>=x){
                printf("yes");
                }else{printf("no");}
                return 0;
    }


